; Function Attrs: mustprogress nofree norecurse nosync nounwind willreturn memory(write, argmem: readwrite, inaccessiblemem: none) uwtable
define dso_local void @_ZN4node4quic6Stream14set_final_sizeEm(ptr nocapture noundef nonnull readonly align 8 dereferenceable(256) %this, i64 noundef %final_size) local_unnamed_addr #11 align 2 {
entry:
  %ptr_.i = getelementptr inbounds i8, ptr %this, i64 144
  %0 = load ptr, ptr %ptr_.i, align 8
  %fin_received = getelementptr inbounds i8, ptr %0, i64 9
  store i8 1, ptr %fin_received, align 1
  %ptr_.i1 = getelementptr inbounds i8, ptr %this, i64 104
  %1 = load ptr, ptr %ptr_.i1, align 8
  %memptr.offset.i = getelementptr inbounds i8, ptr %1, i64 80
  store i64 %final_size, ptr %memptr.offset.i, align 8
  ret void
}